target datalayout = "e-m:e-p270:32:32-p271:32:32-p272:64:64-i64:64-i128:128-f80:128-n8:16:32:64-S128"
target triple = "x86_64-pc-linux-gnu"

; Function Attrs: nounwind uwtable
define internal i32 @generate_q_fips186_4(ptr noundef %0, ptr noundef %1, ptr noundef %2, i32 noundef %3, ptr noundef %4, i64 noundef %5, i32 noundef %6, ptr noundef %7, ptr noundef %8, ptr noundef %9) #0 {
  %11 = alloca ptr, align 8
  %12 = alloca ptr, align 8
  %13 = alloca ptr, align 8
  %14 = alloca i32, align 4
  %15 = alloca ptr, align 8
  %16 = alloca i64, align 8
  %17 = alloca i32, align 4
  %18 = alloca ptr, align 8
  %19 = alloca ptr, align 8
  %20 = alloca ptr, align 8
  %21 = alloca i32, align 4
  %22 = alloca i32, align 4
  %23 = alloca i32, align 4
  %24 = alloca [64 x i8], align 16
  %25 = alloca i32, align 4
  %26 = alloca ptr, align 8
  %27 = alloca ptr, align 8
  store ptr %0, ptr %11, align 8, !tbaa !24
  store ptr %1, ptr %12, align 8, !tbaa !20
  store ptr %2, ptr %13, align 8, !tbaa !28
  store i32 %3, ptr %14, align 4, !tbaa !10
  store ptr %4, ptr %15, align 8, !tbaa !18
  store i64 %5, ptr %16, align 8, !tbaa !12
  store i32 %6, ptr %17, align 4, !tbaa !10
  store ptr %7, ptr %18, align 8, !tbaa !14
  store ptr %8, ptr %19, align 8, !tbaa !14
  store ptr %9, ptr %20, align 8, !tbaa !16
  call void @llvm.lifetime.start.p0(i64 4, ptr %21) #5
  store i32 0, ptr %21, align 4, !tbaa !10
  call void @llvm.lifetime.start.p0(i64 4, ptr %22) #5
  call void @llvm.lifetime.start.p0(i64 4, ptr %23) #5
  %28 = load ptr, ptr %18, align 8, !tbaa !14
  %29 = load i32, ptr %28, align 4, !tbaa !10
  store i32 %29, ptr %23, align 4, !tbaa !10
  call void @llvm.lifetime.start.p0(i64 64, ptr %24) #5
  call void @llvm.lifetime.start.p0(i64 4, ptr %25) #5
  %30 = load ptr, ptr %13, align 8, !tbaa !28
  %31 = call i32 @EVP_MD_get_size(ptr noundef %30)
  store i32 %31, ptr %25, align 4, !tbaa !10
  call void @llvm.lifetime.start.p0(i64 8, ptr %26) #5
  call void @llvm.lifetime.start.p0(i64 8, ptr %27) #5
  %32 = load ptr, ptr %11, align 8, !tbaa !24
  %33 = call ptr @ossl_bn_get_libctx(ptr noundef %32)
  store ptr %33, ptr %27, align 8, !tbaa !3
  %34 = load i32, ptr %25, align 4, !tbaa !10
  %35 = icmp sle i32 %34, 0
  br i1 %35, label %36, label %37

36:                                               ; preds = %10
  br label %133

37:                                               ; preds = %10
  br label %38

38:                                               ; preds = %132, %37
  %39 = load ptr, ptr %20, align 8, !tbaa !16
  %40 = load i32, ptr %23, align 4, !tbaa !10
  %41 = add nsw i32 %40, 1
  store i32 %41, ptr %23, align 4, !tbaa !10
  %42 = call i32 @BN_GENCB_call(ptr noundef %39, i32 noundef 0, i32 noundef %40)
  %43 = icmp ne i32 %42, 0
  br i1 %43, label %45, label %44

44:                                               ; preds = %38
  br label %133

45:                                               ; preds = %38
  %46 = load i32, ptr %17, align 4, !tbaa !10
  %47 = icmp ne i32 %46, 0
  br i1 %47, label %48, label %55

48:                                               ; preds = %45
  %49 = load ptr, ptr %27, align 8, !tbaa !3
  %50 = load ptr, ptr %15, align 8, !tbaa !18
  %51 = load i64, ptr %16, align 8, !tbaa !12
  %52 = call i32 @RAND_bytes_ex(ptr noundef %49, ptr noundef %50, i64 noundef %51, i32 noundef 0)
  %53 = icmp sle i32 %52, 0
  br i1 %53, label %54, label %55

54:                                               ; preds = %48
  br label %133

55:                                               ; preds = %48, %45
  %56 = load ptr, ptr %15, align 8, !tbaa !18
  %57 = load i64, ptr %16, align 8, !tbaa !12
  %58 = getelementptr inbounds [64 x i8], ptr %24, i64 0, i64 0
  %59 = load ptr, ptr %13, align 8, !tbaa !28
  %60 = call i32 @EVP_Digest(ptr noundef %56, i64 noundef %57, ptr noundef %58, ptr noundef null, ptr noundef %59, ptr noundef null)
  %61 = icmp ne i32 %60, 0
  br i1 %61, label %63, label %62

62:                                               ; preds = %55
  br label %133

63:                                               ; preds = %55
  %64 = load i32, ptr %25, align 4, !tbaa !10
  %65 = load i32, ptr %14, align 4, !tbaa !10
  %66 = icmp sgt i32 %64, %65
  br i1 %66, label %67, label %76

67:                                               ; preds = %63
  %68 = getelementptr inbounds [64 x i8], ptr %24, i64 0, i64 0
  %69 = load i32, ptr %25, align 4, !tbaa !10
  %70 = sext i32 %69 to i64
  %71 = getelementptr inbounds i8, ptr %68, i64 %70
  %72 = load i32, ptr %14, align 4, !tbaa !10
  %73 = sext i32 %72 to i64
  %74 = sub i64 0, %73
  %75 = getelementptr inbounds i8, ptr %71, i64 %74
  store ptr %75, ptr %26, align 8, !tbaa !18
  br label %78

76:                                               ; preds = %63
  %77 = getelementptr inbounds [64 x i8], ptr %24, i64 0, i64 0
  store ptr %77, ptr %26, align 8, !tbaa !18
  br label %78

78:                                               ; preds = %76, %67
  %79 = load i32, ptr %25, align 4, !tbaa !10
  %80 = load i32, ptr %14, align 4, !tbaa !10
  %81 = icmp slt i32 %79, %80
  br i1 %81, label %82, label %91

82:                                               ; preds = %78
  %83 = getelementptr inbounds [64 x i8], ptr %24, i64 0, i64 0
  %84 = load i32, ptr %25, align 4, !tbaa !10
  %85 = sext i32 %84 to i64
  %86 = getelementptr inbounds i8, ptr %83, i64 %85
  %87 = load i32, ptr %14, align 4, !tbaa !10
  %88 = load i32, ptr %25, align 4, !tbaa !10
  %89 = sub nsw i32 %87, %88
  %90 = sext i32 %89 to i64
  call void @llvm.memset.p0.i64(ptr align 1 %86, i8 0, i64 %90, i1 false)
  br label %91

91:                                               ; preds = %82, %78
  %92 = load ptr, ptr %26, align 8, !tbaa !18
  %93 = getelementptr inbounds i8, ptr %92, i64 0
  %94 = load i8, ptr %93, align 1, !tbaa !42
  %95 = zext i8 %94 to i32
  %96 = or i32 %95, 128
  %97 = trunc i32 %96 to i8
  store i8 %97, ptr %93, align 1, !tbaa !42
  %98 = load ptr, ptr %26, align 8, !tbaa !18
  %99 = load i32, ptr %14, align 4, !tbaa !10
  %100 = sub nsw i32 %99, 1
  %101 = sext i32 %100 to i64
  %102 = getelementptr inbounds i8, ptr %98, i64 %101
  %103 = load i8, ptr %102, align 1, !tbaa !42
  %104 = zext i8 %103 to i32
  %105 = or i32 %104, 1
  %106 = trunc i32 %105 to i8
  store i8 %106, ptr %102, align 1, !tbaa !42
  %107 = load ptr, ptr %26, align 8, !tbaa !18
  %108 = load i32, ptr %14, align 4, !tbaa !10
  %109 = load ptr, ptr %12, align 8, !tbaa !20
  %110 = call ptr @BN_bin2bn(ptr noundef %107, i32 noundef %108, ptr noundef %109)
  %111 = icmp ne ptr %110, null
  br i1 %111, label %113, label %112

112:                                              ; preds = %91
  br label %133

113:                                              ; preds = %91
  %114 = load ptr, ptr %12, align 8, !tbaa !20
  %115 = load ptr, ptr %11, align 8, !tbaa !24
  %116 = load ptr, ptr %20, align 8, !tbaa !16
  %117 = call i32 @BN_check_prime(ptr noundef %114, ptr noundef %115, ptr noundef %116)
  store i32 %117, ptr %22, align 4, !tbaa !10
  %118 = load i32, ptr %22, align 4, !tbaa !10
  %119 = icmp sgt i32 %118, 0
  br i1 %119, label %120, label %121

120:                                              ; preds = %113
  store i32 1, ptr %21, align 4, !tbaa !10
  br label %133

121:                                              ; preds = %113
  %122 = load i32, ptr %17, align 4, !tbaa !10
  %123 = icmp ne i32 %122, 0
  br i1 %123, label %128, label %124

124:                                              ; preds = %121
  %125 = load ptr, ptr %19, align 8, !tbaa !14
  %126 = load i32, ptr %125, align 4, !tbaa !10
  %127 = or i32 %126, 16
  store i32 %127, ptr %125, align 4, !tbaa !10
  br label %133

128:                                              ; preds = %121
  %129 = load i32, ptr %22, align 4, !tbaa !10
  %130 = icmp ne i32 %129, 0
  br i1 %130, label %131, label %132

131:                                              ; preds = %128
  br label %133

132:                                              ; preds = %128
  br label %38

133:                                              ; preds = %131, %124, %120, %112, %62, %54, %44, %36
  %134 = load i32, ptr %23, align 4, !tbaa !10
  %135 = load ptr, ptr %18, align 8, !tbaa !14
  store i32 %134, ptr %135, align 4, !tbaa !10
  %136 = load i32, ptr %21, align 4, !tbaa !10
  call void @llvm.lifetime.end.p0(i64 8, ptr %27) #5
  call void @llvm.lifetime.end.p0(i64 8, ptr %26) #5
  call void @llvm.lifetime.end.p0(i64 4, ptr %25) #5
  call void @llvm.lifetime.end.p0(i64 64, ptr %24) #5
  call void @llvm.lifetime.end.p0(i64 4, ptr %23) #5
  call void @llvm.lifetime.end.p0(i64 4, ptr %22) #5
  call void @llvm.lifetime.end.p0(i64 4, ptr %21) #5
  ret i32 %136
}