; Function Attrs: nounwind uwtable
define internal fastcc range(i32 0, 2) i32 @generate_q_fips186_4(ptr noundef nonnull %0, ptr noundef nonnull %1, ptr noundef nonnull %2, i32 noundef %3, ptr noundef nonnull %4, i64 noundef range(i64 1, 0) %5, i32 noundef range(i32 0, 2) %6, ptr noundef nonnull captures(none) %7, ptr noundef captures(none) %8, ptr noundef %9) unnamed_addr #0 {
  %11 = alloca [64 x i8], align 16
  %12 = load i32, ptr %7, align 4, !tbaa !3
  call void @llvm.lifetime.start.p0(i64 64, ptr nonnull %11) #5
  %13 = tail call i32 @EVP_MD_get_size(ptr noundef nonnull %2) #5
  %.fr64 = freeze i32 %13
  %14 = tail call ptr @ossl_bn_get_libctx(ptr noundef nonnull %0) #5
  %15 = icmp slt i32 %.fr64, 1
  br i1 %15, label %.loopexit, label %.preheader

.preheader:                                       ; preds = %10
  %.not44 = icmp eq i32 %6, 0
  %16 = icmp sgt i32 %.fr64, %3
  %17 = zext nneg i32 %.fr64 to i64
  %18 = getelementptr inbounds nuw i8, ptr %11, i64 %17
  %19 = sext i32 %3 to i64
  %20 = sub nsw i64 0, %19
  %21 = getelementptr inbounds i8, ptr %18, i64 %20
  %.037 = select i1 %16, ptr %21, ptr %11
  %22 = icmp slt i32 %.fr64, %3
  %23 = sub nsw i32 %3, %.fr64
  %24 = sext i32 %23 to i64
  %25 = getelementptr i8, ptr %.037, i64 %19
  %26 = getelementptr i8, ptr %25, i64 -1
  br i1 %.not44, label %.preheader.split.us, label %.preheader.split.split

.preheader.split.us:                              ; preds = %.preheader
  %27 = add nsw i32 %12, 1
  %28 = tail call i32 @BN_GENCB_call(ptr noundef %9, i32 noundef 0, i32 noundef %12) #5
  %.not.us.us = icmp eq i32 %28, 0
  br i1 %22, label %.preheader.split.us.split.us, label %.preheader.split.us.split

.preheader.split.us.split.us:                     ; preds = %.preheader.split.us
  br i1 %.not.us.us, label %.loopexit, label %29

29:                                               ; preds = %.preheader.split.us.split.us
  %30 = call i32 @EVP_Digest(ptr noundef nonnull %4, i64 noundef %5, ptr noundef nonnull %11, ptr noundef null, ptr noundef nonnull %2, ptr noundef null) #5
  %.not45.us.us = icmp eq i32 %30, 0
  br i1 %.not45.us.us, label %.loopexit, label %31

31:                                               ; preds = %29
  call void @llvm.memset.p0.i64(ptr nonnull align 1 %18, i8 0, i64 %24, i1 false)
  %32 = load i8, ptr %.037, align 1, !tbaa !23
  %33 = or i8 %32, -128
  store i8 %33, ptr %.037, align 1, !tbaa !23
  %34 = load i8, ptr %26, align 1, !tbaa !23
  %35 = or i8 %34, 1
  store i8 %35, ptr %26, align 1, !tbaa !23
  %36 = call ptr @BN_bin2bn(ptr noundef nonnull %.037, i32 noundef %3, ptr noundef nonnull %1) #5
  %.not46.us.us = icmp eq ptr %36, null
  br i1 %.not46.us.us, label %.loopexit, label %37

37:                                               ; preds = %31
  %38 = call i32 @BN_check_prime(ptr noundef nonnull %1, ptr noundef nonnull %0, ptr noundef %9) #5
  %39 = icmp sgt i32 %38, 0
  br i1 %39, label %.loopexit, label %.split.us

.preheader.split.us.split:                        ; preds = %.preheader.split.us
  br i1 %.not.us.us, label %.loopexit, label %40

40:                                               ; preds = %.preheader.split.us.split
  %41 = call i32 @EVP_Digest(ptr noundef nonnull %4, i64 noundef %5, ptr noundef nonnull %11, ptr noundef null, ptr noundef nonnull %2, ptr noundef null) #5
  %.not45.us = icmp eq i32 %41, 0
  br i1 %.not45.us, label %.loopexit, label %42

42:                                               ; preds = %40
  %43 = load i8, ptr %.037, align 1, !tbaa !23
  %44 = or i8 %43, -128
  store i8 %44, ptr %.037, align 1, !tbaa !23
  %45 = load i8, ptr %26, align 1, !tbaa !23
  %46 = or i8 %45, 1
  store i8 %46, ptr %26, align 1, !tbaa !23
  %47 = call ptr @BN_bin2bn(ptr noundef nonnull %.037, i32 noundef %3, ptr noundef nonnull %1) #5
  %.not46.us = icmp eq ptr %47, null
  br i1 %.not46.us, label %.loopexit, label %48

48:                                               ; preds = %42
  %49 = call i32 @BN_check_prime(ptr noundef nonnull %1, ptr noundef nonnull %0, ptr noundef %9) #5
  %50 = icmp sgt i32 %49, 0
  br i1 %50, label %.loopexit, label %.split.us

.preheader.split.split:                           ; preds = %.preheader
  br i1 %22, label %.preheader.split.split.split.us, label %.preheader.split.split.split

.preheader.split.split.split.us:                  ; preds = %.preheader.split.split, %67
  %.1.us51 = phi i32 [ %51, %67 ], [ %12, %.preheader.split.split ]
  %51 = add nsw i32 %.1.us51, 1
  %52 = call i32 @BN_GENCB_call(ptr noundef %9, i32 noundef 0, i32 noundef %.1.us51) #5
  %.not.us52 = icmp eq i32 %52, 0
  br i1 %.not.us52, label %.loopexit, label %53

53:                                               ; preds = %.preheader.split.split.split.us
  %54 = call i32 @RAND_bytes_ex(ptr noundef %14, ptr noundef nonnull %4, i64 noundef %5, i32 noundef 0) #5
  %55 = icmp slt i32 %54, 1
  br i1 %55, label %.loopexit, label %56

56:                                               ; preds = %53
  %57 = call i32 @EVP_Digest(ptr noundef nonnull %4, i64 noundef %5, ptr noundef nonnull %11, ptr noundef null, ptr noundef nonnull %2, ptr noundef null) #5
  %.not45.us53 = icmp eq i32 %57, 0
  br i1 %.not45.us53, label %.loopexit, label %58

58:                                               ; preds = %56
  call void @llvm.memset.p0.i64(ptr nonnull align 1 %18, i8 0, i64 %24, i1 false)
  %59 = load i8, ptr %.037, align 1, !tbaa !23
  %60 = or i8 %59, -128
  store i8 %60, ptr %.037, align 1, !tbaa !23
  %61 = load i8, ptr %26, align 1, !tbaa !23
  %62 = or i8 %61, 1
  store i8 %62, ptr %26, align 1, !tbaa !23
  %63 = call ptr @BN_bin2bn(ptr noundef nonnull %.037, i32 noundef %3, ptr noundef nonnull %1) #5
  %.not46.us54 = icmp eq ptr %63, null
  br i1 %.not46.us54, label %.loopexit, label %64

64:                                               ; preds = %58
  %65 = call i32 @BN_check_prime(ptr noundef nonnull %1, ptr noundef nonnull %0, ptr noundef %9) #5
  %66 = icmp sgt i32 %65, 0
  br i1 %66, label %.loopexit, label %67

67:                                               ; preds = %64
  %.not47.us55 = icmp eq i32 %65, 0
  br i1 %.not47.us55, label %.preheader.split.split.split.us, label %.loopexit

.preheader.split.split.split:                     ; preds = %.preheader.split.split, %84
  %.1 = phi i32 [ %68, %84 ], [ %12, %.preheader.split.split ]
  %68 = add nsw i32 %.1, 1
  %69 = call i32 @BN_GENCB_call(ptr noundef %9, i32 noundef 0, i32 noundef %.1) #5
  %.not = icmp eq i32 %69, 0
  br i1 %.not, label %.loopexit, label %70

70:                                               ; preds = %.preheader.split.split.split
  %71 = call i32 @RAND_bytes_ex(ptr noundef %14, ptr noundef nonnull %4, i64 noundef %5, i32 noundef 0) #5
  %72 = icmp slt i32 %71, 1
  br i1 %72, label %.loopexit, label %73

73:                                               ; preds = %70
  %74 = call i32 @EVP_Digest(ptr noundef nonnull %4, i64 noundef %5, ptr noundef nonnull %11, ptr noundef null, ptr noundef nonnull %2, ptr noundef null) #5
  %.not45 = icmp eq i32 %74, 0
  br i1 %.not45, label %.loopexit, label %75

75:                                               ; preds = %73
  %76 = load i8, ptr %.037, align 1, !tbaa !23
  %77 = or i8 %76, -128
  store i8 %77, ptr %.037, align 1, !tbaa !23
  %78 = load i8, ptr %26, align 1, !tbaa !23
  %79 = or i8 %78, 1
  store i8 %79, ptr %26, align 1, !tbaa !23
  %80 = call ptr @BN_bin2bn(ptr noundef nonnull %.037, i32 noundef %3, ptr noundef nonnull %1) #5
  %.not46 = icmp eq ptr %80, null
  br i1 %.not46, label %.loopexit, label %81

81:                                               ; preds = %75
  %82 = call i32 @BN_check_prime(ptr noundef nonnull %1, ptr noundef nonnull %0, ptr noundef %9) #5
  %83 = icmp sgt i32 %82, 0
  br i1 %83, label %.loopexit, label %84

84:                                               ; preds = %81
  %.not47 = icmp eq i32 %82, 0
  br i1 %.not47, label %.preheader.split.split.split, label %.loopexit

.split.us:                                        ; preds = %37, %48
  %85 = load i32, ptr %8, align 4, !tbaa !3
  %86 = or i32 %85, 16
  store i32 %86, ptr %8, align 4, !tbaa !3
  br label %.loopexit

.loopexit:                                        ; preds = %81, %84, %75, %73, %70, %.preheader.split.split.split, %.preheader.split.split.split.us, %53, %56, %58, %64, %67, %.preheader.split.us.split, %40, %42, %48, %.preheader.split.us.split.us, %29, %31, %37, %10, %.split.us
  %.038 = phi i32 [ %12, %10 ], [ %27, %.split.us ], [ %27, %37 ], [ %27, %31 ], [ %27, %29 ], [ %27, %.preheader.split.us.split.us ], [ %27, %48 ], [ %27, %42 ], [ %27, %40 ], [ %27, %.preheader.split.us.split ], [ %51, %67 ], [ %51, %64 ], [ %51, %58 ], [ %51, %56 ], [ %51, %53 ], [ %51, %.preheader.split.split.split.us ], [ %68, %.preheader.split.split.split ], [ %68, %70 ], [ %68, %73 ], [ %68, %75 ], [ %68, %84 ], [ %68, %81 ]
  %.0 = phi i32 [ 0, %10 ], [ 0, %.split.us ], [ 1, %37 ], [ 0, %31 ], [ 0, %29 ], [ 0, %.preheader.split.us.split.us ], [ 1, %48 ], [ 0, %42 ], [ 0, %40 ], [ 0, %.preheader.split.us.split ], [ 0, %.preheader.split.split.split.us ], [ 0, %53 ], [ 0, %56 ], [ 0, %58 ], [ 1, %64 ], [ 0, %67 ], [ 1, %81 ], [ 0, %84 ], [ 0, %75 ], [ 0, %73 ], [ 0, %70 ], [ 0, %.preheader.split.split.split ]
  store i32 %.038, ptr %7, align 4, !tbaa !3
  call void @llvm.lifetime.end.p0(i64 64, ptr nonnull %11) #5
  ret i32 %.0
}